target datalayout = "e-m:e-p270:32:32-p271:32:32-p272:64:64-i64:64-i128:128-f80:128-n8:16:32:64-S128"
target triple = "x86_64-pc-linux-gnu"

; Function Attrs: nounwind uwtable
define dso_local i32 @get_relkind_objtype(i8 noundef signext %0) #0 {
  %2 = alloca i32, align 4
  %3 = alloca i8, align 1
  store i8 %0, ptr %3, align 1
  %4 = load i8, ptr %3, align 1
  %5 = sext i8 %4 to i32
  switch i32 %5, label %13 [
    i32 114, label %6
    i32 112, label %6
    i32 105, label %7
    i32 73, label %7
    i32 83, label %8
    i32 118, label %9
    i32 109, label %10
    i32 102, label %11
    i32 116, label %12
  ]

6:                                                ; preds = %1, %1
  store i32 41, ptr %2, align 4
  br label %14

7:                                                ; preds = %1, %1
  store i32 20, ptr %2, align 4
  br label %14

8:                                                ; preds = %1
  store i32 37, ptr %2, align 4
  br label %14

9:                                                ; preds = %1
  store i32 51, ptr %2, align 4
  br label %14

10:                                               ; preds = %1
  store i32 23, ptr %2, align 4
  br label %14

11:                                               ; preds = %1
  store i32 18, ptr %2, align 4
  br label %14

12:                                               ; preds = %1
  store i32 41, ptr %2, align 4
  br label %14

13:                                               ; preds = %1
  store i32 41, ptr %2, align 4
  br label %14

14:                                               ; preds = %13, %12, %11, %10, %9, %8, %7, %6
  %15 = load i32, ptr %2, align 4
  ret i32 %15
}