; Function Attrs: mustprogress nofree norecurse nosync nounwind willreturn memory(none) uwtable
define dso_local range(i32 18, 52) i32 @get_relkind_objtype(i8 noundef signext %0) local_unnamed_addr #5 {
  switch i8 %0, label %6 [
    i8 102, label %5
    i8 109, label %4
    i8 105, label %7
    i8 73, label %7
    i8 83, label %2
    i8 118, label %3
  ]

2:                                                ; preds = %1
  br label %7

3:                                                ; preds = %1
  br label %7

4:                                                ; preds = %1
  br label %7

5:                                                ; preds = %1
  br label %7

6:                                                ; preds = %1
  br label %7

7:                                                ; preds = %1, %1, %6, %5, %4, %3, %2
  %.0 = phi i32 [ 41, %6 ], [ 18, %5 ], [ 23, %4 ], [ 51, %3 ], [ 37, %2 ], [ 20, %1 ], [ 20, %1 ]
  ret i32 %.0
}